target datalayout = "e-m:e-p270:32:32-p271:32:32-p272:64:64-i64:64-i128:128-f80:128-n8:16:32:64-S128"
target triple = "x86_64-pc-linux-gnu"

%"struct.ozz::io::internal::Array" = type { ptr, i64 }
%"struct.ozz::math::SoaFloat3" = type { <4 x float>, <4 x float>, <4 x float> }
%"struct.ozz::math::SoaQuaternion" = type { <4 x float>, <4 x float>, <4 x float>, <4 x float> }
%"struct.ozz::math::SoaTransform" = type { %"struct.ozz::math::SoaFloat3", %"struct.ozz::math::SoaQuaternion", %"struct.ozz::math::SoaFloat3" }
%"class.ozz::io::OArchive" = type <{ ptr, i8, [7 x i8] }>

; Function Attrs: alwaysinline mustprogress nounwind uwtable
define linkonce_odr dso_local void @_ZN3ozz19_in_place_byte_swapERhS0_(ptr noundef nonnull align 1 dereferenceable(1) %0, ptr noundef nonnull align 1 dereferenceable(1) %1) #2 comdat {
  %3 = alloca ptr, align 8
  %4 = alloca ptr, align 8
  store ptr %0, ptr %3, align 8, !tbaa !54
  store ptr %1, ptr %4, align 8, !tbaa !54
  %5 = load ptr, ptr %3, align 8, !tbaa !54
  %6 = load i8, ptr %5, align 1, !tbaa !56
  %7 = zext i8 %6 to i32
  %8 = load ptr, ptr %4, align 8, !tbaa !54
  %9 = load i8, ptr %8, align 1, !tbaa !56
  %10 = zext i8 %9 to i32
  %11 = xor i32 %7, %10
  %12 = trunc i32 %11 to i8
  %13 = load ptr, ptr %3, align 8, !tbaa !54
  store i8 %12, ptr %13, align 1, !tbaa !56
  %14 = load ptr, ptr %3, align 8, !tbaa !54
  %15 = load i8, ptr %14, align 1, !tbaa !56
  %16 = zext i8 %15 to i32
  %17 = load ptr, ptr %4, align 8, !tbaa !54
  %18 = load i8, ptr %17, align 1, !tbaa !56
  %19 = zext i8 %18 to i32
  %20 = xor i32 %16, %19
  %21 = trunc i32 %20 to i8
  %22 = load ptr, ptr %4, align 8, !tbaa !54
  store i8 %21, ptr %22, align 1, !tbaa !56
  %23 = load ptr, ptr %3, align 8, !tbaa !54
  %24 = load i8, ptr %23, align 1, !tbaa !56
  %25 = zext i8 %24 to i32
  %26 = load ptr, ptr %4, align 8, !tbaa !54
  %27 = load i8, ptr %26, align 1, !tbaa !56
  %28 = zext i8 %27 to i32
  %29 = xor i32 %25, %28
  %30 = trunc i32 %29 to i8
  %31 = load ptr, ptr %3, align 8, !tbaa !54
  store i8 %30, ptr %31, align 1, !tbaa !56
  ret void
}

; Function Attrs: alwaysinline mustprogress uwtable
define linkonce_odr dso_local noundef float @_ZN3ozz13EndianSwapperIfLm4EE4SwapEf(float noundef %0) #5 comdat align 2 {
  %2 = alloca float, align 4
  %3 = alloca ptr, align 8
  store float %0, ptr %2, align 4, !tbaa !41
  call void @llvm.lifetime.start.p0(i64 8, ptr %3) #6
  store ptr %2, ptr %3, align 8, !tbaa !54
  %4 = load ptr, ptr %3, align 8, !tbaa !54
  %5 = getelementptr inbounds i8, ptr %4, i64 0
  %6 = load ptr, ptr %3, align 8, !tbaa !54
  %7 = getelementptr inbounds i8, ptr %6, i64 3
  call void @_ZN3ozz19_in_place_byte_swapERhS0_(ptr noundef nonnull align 1 dereferenceable(1) %5, ptr noundef nonnull align 1 dereferenceable(1) %7)
  %8 = load ptr, ptr %3, align 8, !tbaa !54
  %9 = getelementptr inbounds i8, ptr %8, i64 1
  %10 = load ptr, ptr %3, align 8, !tbaa !54
  %11 = getelementptr inbounds i8, ptr %10, i64 2
  call void @_ZN3ozz19_in_place_byte_swapERhS0_(ptr noundef nonnull align 1 dereferenceable(1) %9, ptr noundef nonnull align 1 dereferenceable(1) %11)
  %12 = load float, ptr %2, align 4, !tbaa !41
  call void @llvm.lifetime.end.p0(i64 8, ptr %3) #6
  ret float %12
}

; Function Attrs: mustprogress uwtable
define linkonce_odr dso_local noundef i64 @_ZN3ozz2io8OArchive10SaveBinaryEPKvm(ptr noundef nonnull align 8 dereferenceable(9) %0, ptr noundef %1, i64 noundef %2) #0 comdat align 2 {
  %4 = alloca ptr, align 8
  %5 = alloca ptr, align 8
  %6 = alloca i64, align 8
  store ptr %0, ptr %4, align 8, !tbaa !4
  store ptr %1, ptr %5, align 8, !tbaa !53
  store i64 %2, ptr %6, align 8, !tbaa !11
  %7 = load ptr, ptr %4, align 8
  %8 = getelementptr inbounds nuw %"class.ozz::io::OArchive", ptr %7, i32 0, i32 0
  %9 = load ptr, ptr %8, align 8, !tbaa !50
  %10 = load ptr, ptr %5, align 8, !tbaa !53
  %11 = load i64, ptr %6, align 8, !tbaa !11
  %12 = load ptr, ptr %9, align 8, !tbaa !51
  %13 = getelementptr inbounds ptr, ptr %12, i64 2
  %14 = load ptr, ptr %13, align 8
  %15 = call noundef i64 %14(ptr noundef nonnull align 8 dereferenceable(8) %9, ptr noundef %10, i64 noundef %11)
  ret i64 %15
}

; Function Attrs: mustprogress uwtable
define linkonce_odr dso_local void @_ZN3ozz2io8OArchivelsEf(ptr noundef nonnull align 8 dereferenceable(9) %0, float noundef %1) #0 comdat align 2 {
  %3 = alloca ptr, align 8
  %4 = alloca float, align 4
  %5 = alloca float, align 4
  store ptr %0, ptr %3, align 8, !tbaa !4
  store float %1, ptr %4, align 4, !tbaa !41
  %6 = load ptr, ptr %3, align 8
  call void @llvm.lifetime.start.p0(i64 4, ptr %5) #6
  %7 = getelementptr inbounds nuw %"class.ozz::io::OArchive", ptr %6, i32 0, i32 1
  %8 = load i8, ptr %7, align 8, !tbaa !44, !range !48, !noundef !49
  %9 = trunc i8 %8 to i1
  br i1 %9, label %10, label %13

10:                                               ; preds = %2
  %11 = load float, ptr %4, align 4, !tbaa !41
  %12 = call noundef float @_ZN3ozz13EndianSwapperIfLm4EE4SwapEf(float noundef %11)
  br label %15

13:                                               ; preds = %2
  %14 = load float, ptr %4, align 4, !tbaa !41
  br label %15

15:                                               ; preds = %13, %10
  %16 = phi float [ %12, %10 ], [ %14, %13 ]
  store float %16, ptr %5, align 4, !tbaa !41
  %17 = getelementptr inbounds nuw %"class.ozz::io::OArchive", ptr %6, i32 0, i32 0
  %18 = load ptr, ptr %17, align 8, !tbaa !50
  %19 = load ptr, ptr %18, align 8, !tbaa !51
  %20 = getelementptr inbounds ptr, ptr %19, i64 2
  %21 = load ptr, ptr %20, align 8
  %22 = call noundef i64 %21(ptr noundef nonnull align 8 dereferenceable(8) %18, ptr noundef %5, i64 noundef 4)
  call void @llvm.lifetime.end.p0(i64 4, ptr %5) #6
  ret void
}

; Function Attrs: mustprogress nounwind uwtable
define linkonce_odr dso_local noundef zeroext i1 @_ZNK3ozz2io8OArchive11endian_swapEv(ptr noundef nonnull align 8 dereferenceable(9) %0) #3 comdat align 2 {
  %2 = alloca ptr, align 8
  store ptr %0, ptr %2, align 8, !tbaa !4
  %3 = load ptr, ptr %2, align 8
  %4 = getelementptr inbounds nuw %"class.ozz::io::OArchive", ptr %3, i32 0, i32 1
  %5 = load i8, ptr %4, align 8, !tbaa !44, !range !48, !noundef !49
  %6 = trunc i8 %5 to i1
  ret i1 %6
}

; Function Attrs: alwaysinline mustprogress uwtable
define linkonce_odr dso_local void @_ZNK3ozz2io8internal5ArrayIKfE4SaveERNS0_8OArchiveE(ptr noundef nonnull align 8 dereferenceable(16) %0, ptr noundef nonnull align 8 dereferenceable(9) %1) #5 comdat align 2 {
  %3 = alloca ptr, align 8
  %4 = alloca ptr, align 8
  %5 = alloca i64, align 8
  store ptr %0, ptr %3, align 8, !tbaa !13
  store ptr %1, ptr %4, align 8, !tbaa !4
  %6 = load ptr, ptr %3, align 8
  %7 = load ptr, ptr %4, align 8, !tbaa !4
  %8 = call noundef zeroext i1 @_ZNK3ozz2io8OArchive11endian_swapEv(ptr noundef nonnull align 8 dereferenceable(9) %7)
  br i1 %8, label %9, label %27

9:                                                ; preds = %2
  call void @llvm.lifetime.start.p0(i64 8, ptr %5) #6
  store i64 0, ptr %5, align 8, !tbaa !11
  br label %10

10:                                               ; preds = %23, %9
  %11 = load i64, ptr %5, align 8, !tbaa !11
  %12 = getelementptr inbounds nuw %"struct.ozz::io::internal::Array", ptr %6, i32 0, i32 1
  %13 = load i64, ptr %12, align 8, !tbaa !19
  %14 = icmp ult i64 %11, %13
  br i1 %14, label %16, label %15

15:                                               ; preds = %10
  call void @llvm.lifetime.end.p0(i64 8, ptr %5) #6
  br label %26

16:                                               ; preds = %10
  %17 = load ptr, ptr %4, align 8, !tbaa !4
  %18 = getelementptr inbounds nuw %"struct.ozz::io::internal::Array", ptr %6, i32 0, i32 0
  %19 = load ptr, ptr %18, align 8, !tbaa !17
  %20 = load i64, ptr %5, align 8, !tbaa !11
  %21 = getelementptr inbounds nuw float, ptr %19, i64 %20
  %22 = load float, ptr %21, align 4, !tbaa !41
  call void @_ZN3ozz2io8OArchivelsEf(ptr noundef nonnull align 8 dereferenceable(9) %17, float noundef %22)
  br label %23

23:                                               ; preds = %16
  %24 = load i64, ptr %5, align 8, !tbaa !11
  %25 = add i64 %24, 1
  store i64 %25, ptr %5, align 8, !tbaa !11
  br label %10, !llvm.loop !43

26:                                               ; preds = %15
  br label %35

27:                                               ; preds = %2
  %28 = load ptr, ptr %4, align 8, !tbaa !4
  %29 = getelementptr inbounds nuw %"struct.ozz::io::internal::Array", ptr %6, i32 0, i32 0
  %30 = load ptr, ptr %29, align 8, !tbaa !17
  %31 = getelementptr inbounds nuw %"struct.ozz::io::internal::Array", ptr %6, i32 0, i32 1
  %32 = load i64, ptr %31, align 8, !tbaa !19
  %33 = mul i64 %32, 4
  %34 = call noundef i64 @_ZN3ozz2io8OArchive10SaveBinaryEPKvm(ptr noundef nonnull align 8 dereferenceable(9) %28, ptr noundef %30, i64 noundef %33)
  br label %35

35:                                               ; preds = %27, %26
  ret void
}

; Function Attrs: inlinehint mustprogress uwtable
define linkonce_odr dso_local void @_ZN3ozz2io6ExternINS0_8internal5ArrayIKfEEE4SaveERNS0_8OArchiveEPKS5_m(ptr noundef nonnull align 8 dereferenceable(9) %0, ptr noundef %1, i64 noundef %2) #4 comdat align 2 {
  %4 = alloca ptr, align 8
  %5 = alloca ptr, align 8
  %6 = alloca i64, align 8
  %7 = alloca i64, align 8
  store ptr %0, ptr %4, align 8, !tbaa !4
  store ptr %1, ptr %5, align 8, !tbaa !13
  store i64 %2, ptr %6, align 8, !tbaa !11
  call void @llvm.lifetime.start.p0(i64 8, ptr %7) #6
  store i64 0, ptr %7, align 8, !tbaa !11
  br label %8

8:                                                ; preds = %18, %3
  %9 = load i64, ptr %7, align 8, !tbaa !11
  %10 = load i64, ptr %6, align 8, !tbaa !11
  %11 = icmp ult i64 %9, %10
  br i1 %11, label %13, label %12

12:                                               ; preds = %8
  call void @llvm.lifetime.end.p0(i64 8, ptr %7) #6
  br label %21

13:                                               ; preds = %8
  %14 = load ptr, ptr %5, align 8, !tbaa !13
  %15 = load i64, ptr %7, align 8, !tbaa !11
  %16 = getelementptr inbounds nuw %"struct.ozz::io::internal::Array", ptr %14, i64 %15
  %17 = load ptr, ptr %4, align 8, !tbaa !4
  call void @_ZNK3ozz2io8internal5ArrayIKfE4SaveERNS0_8OArchiveE(ptr noundef nonnull align 8 dereferenceable(16) %16, ptr noundef nonnull align 8 dereferenceable(9) %17)
  br label %18

18:                                               ; preds = %13
  %19 = load i64, ptr %7, align 8, !tbaa !11
  %20 = add i64 %19, 1
  store i64 %20, ptr %7, align 8, !tbaa !11
  br label %8, !llvm.loop !39

21:                                               ; preds = %12
  ret void
}

; Function Attrs: mustprogress nounwind uwtable
define linkonce_odr dso_local void @_ZN3ozz2io8OArchive11SaveVersionINS0_8internal5ArrayIKfEEEEvv(ptr noundef nonnull align 8 dereferenceable(9) %0) #3 comdat align 2 {
  %2 = alloca ptr, align 8
  store ptr %0, ptr %2, align 8, !tbaa !4
  ret void
}

; Function Attrs: mustprogress nounwind uwtable
define linkonce_odr dso_local void @_ZN3ozz2io8internal6TaggerIKNS1_5ArrayIKfEELb0EE5WriteERNS0_8OArchiveE(ptr noundef nonnull align 8 dereferenceable(9) %0) #3 comdat align 2 {
  %2 = alloca ptr, align 8
  store ptr %0, ptr %2, align 8, !tbaa !4
  ret void
}

; Function Attrs: mustprogress uwtable
define linkonce_odr dso_local void @_ZN3ozz2io8OArchivelsINS0_8internal5ArrayIKfEEEEvRKT_(ptr noundef nonnull align 8 dereferenceable(9) %0, ptr noundef nonnull align 8 dereferenceable(16) %1) #0 comdat align 2 {
  %3 = alloca ptr, align 8
  %4 = alloca ptr, align 8
  store ptr %0, ptr %3, align 8, !tbaa !4
  store ptr %1, ptr %4, align 8, !tbaa !13
  %5 = load ptr, ptr %3, align 8
  call void @_ZN3ozz2io8internal6TaggerIKNS1_5ArrayIKfEELb0EE5WriteERNS0_8OArchiveE(ptr noundef nonnull align 8 dereferenceable(9) %5)
  call void @_ZN3ozz2io8OArchive11SaveVersionINS0_8internal5ArrayIKfEEEEvv(ptr noundef nonnull align 8 dereferenceable(9) %5)
  %6 = load ptr, ptr %4, align 8, !tbaa !13
  call void @_ZN3ozz2io6ExternINS0_8internal5ArrayIKfEEE4SaveERNS0_8OArchiveEPKS5_m(ptr noundef nonnull align 8 dereferenceable(9) %5, ptr noundef %6, i64 noundef 1)
  ret void
}

; Function Attrs: alwaysinline mustprogress nounwind uwtable
define linkonce_odr dso_local { ptr, i64 } @_ZN3ozz2io9MakeArrayIfEEKNS0_8internal5ArrayIKT_EEPS5_m(ptr noundef %0, i64 noundef %1) #2 comdat {
  %3 = alloca %"struct.ozz::io::internal::Array", align 8
  %4 = alloca ptr, align 8
  %5 = alloca i64, align 8
  store ptr %0, ptr %4, align 8, !tbaa !15
  store i64 %1, ptr %5, align 8, !tbaa !11
  %6 = getelementptr inbounds nuw %"struct.ozz::io::internal::Array", ptr %3, i32 0, i32 0
  %7 = load ptr, ptr %4, align 8, !tbaa !15
  store ptr %7, ptr %6, align 8, !tbaa !17
  %8 = getelementptr inbounds nuw %"struct.ozz::io::internal::Array", ptr %3, i32 0, i32 1
  %9 = load i64, ptr %5, align 8, !tbaa !11
  store i64 %9, ptr %8, align 8, !tbaa !19
  %10 = load { ptr, i64 }, ptr %3, align 8
  ret { ptr, i64 } %10
}

; Function Attrs: mustprogress uwtable
define dso_local void @_ZN3ozz2io6ExternINS_4math12SoaTransformEE4SaveERNS0_8OArchiveEPKS3_m(ptr noundef nonnull align 8 dereferenceable(9) %0, ptr noundef %1, i64 noundef %2) #0 align 2 {
  %4 = alloca ptr, align 8
  %5 = alloca ptr, align 8
  %6 = alloca i64, align 8
  %7 = alloca %"struct.ozz::io::internal::Array", align 8
  store ptr %0, ptr %4, align 8, !tbaa !4
  store ptr %1, ptr %5, align 8, !tbaa !37
  store i64 %2, ptr %6, align 8, !tbaa !11
  %8 = load ptr, ptr %4, align 8, !tbaa !4
  call void @llvm.lifetime.start.p0(i64 16, ptr %7) #6
  %9 = load ptr, ptr %5, align 8, !tbaa !37
  %10 = getelementptr inbounds nuw %"struct.ozz::math::SoaTransform", ptr %9, i32 0, i32 0
  %11 = getelementptr inbounds nuw %"struct.ozz::math::SoaFloat3", ptr %10, i32 0, i32 0
  %12 = load i64, ptr %6, align 8, !tbaa !11
  %13 = mul i64 40, %12
  %14 = call { ptr, i64 } @_ZN3ozz2io9MakeArrayIfEEKNS0_8internal5ArrayIKT_EEPS5_m(ptr noundef %11, i64 noundef %13)
  %15 = getelementptr inbounds nuw { ptr, i64 }, ptr %7, i32 0, i32 0
  %16 = extractvalue { ptr, i64 } %14, 0
  store ptr %16, ptr %15, align 8
  %17 = getelementptr inbounds nuw { ptr, i64 }, ptr %7, i32 0, i32 1
  %18 = extractvalue { ptr, i64 } %14, 1
  store i64 %18, ptr %17, align 8
  call void @_ZN3ozz2io8OArchivelsINS0_8internal5ArrayIKfEEEEvRKT_(ptr noundef nonnull align 8 dereferenceable(9) %8, ptr noundef nonnull align 8 dereferenceable(16) %7)
  call void @llvm.lifetime.end.p0(i64 16, ptr %7) #6
  ret void
}